

Microchip MPLAB XC8 Assembler V2.46 build 20240104201356 
                                                                                               Mon Jun 17 21:30:45 2024

Microchip MPLAB XC8 C Compiler v2.46 (Free license) build 20240104201356 Og1 
     1                           	processor	18F46K20
     2                           	fnconf	rparam,??,?,0
     3                           	pagewidth 120
     4                           	opt	flic
     5                           	psect	cinit,global,reloc=2,class=CODE,delta=1
     6                           	psect	bssCOMRAM,global,class=COMRAM,space=1,delta=1,lowdata,noexec
     7                           	psect	cstackCOMRAM,global,class=COMRAM,space=1,delta=1,lowdata,noexec
     8                           	psect	text0,global,reloc=2,class=CODE,delta=1
     9                           	psect	text1,global,reloc=2,class=CODE,delta=1
    10                           	psect	text2,global,reloc=2,class=CODE,delta=1
    11                           	psect	text3,global,reloc=2,class=CODE,delta=1
    12                           	psect	text4,global,reloc=2,class=CODE,delta=1
    13                           	psect	text5,global,reloc=2,class=CODE,delta=1
    14                           	psect	text6,global,reloc=2,class=CODE,delta=1
    15                           	psect	text7,global,reloc=2,class=CODE,delta=1
    16                           	psect	text8,global,reloc=2,class=CODE,delta=1
    17                           	psect	text9,global,reloc=2,class=CODE,delta=1
    18                           	psect	text10,global,reloc=2,class=CODE,delta=1
    19                           	psect	smallconst,global,reloc=2,class=SMALLCONST,delta=1,noexec
    20                           	psect	intsave_regs,global,class=BIGRAM,space=1,delta=1,noexec
    21                           	psect	rparam,global,class=COMRAM,space=1,delta=1,noexec
    22                           	psect	config,global,abs,ovrld,class=CONFIG,space=4,delta=1,noexec
    23   000000                     
    24                           ; Generated 12/10/2023 GMT
    25                           ; 
    26                           ; Copyright © 2023, Microchip Technology Inc. and its subsidiaries ("Microchip")
    27                           ; All rights reserved.
    28                           ; 
    29                           ; This software is developed by Microchip Technology Inc. and its subsidiaries ("Microch
      +                          ip").
    30                           ; 
    31                           ; Redistribution and use in source and binary forms, with or without modification, are
    32                           ; permitted provided that the following conditions are met:
    33                           ; 
    34                           ;     1. Redistributions of source code must retain the above copyright notice, this lis
      +                          t of
    35                           ;        conditions and the following disclaimer.
    36                           ; 
    37                           ;     2. Redistributions in binary form must reproduce the above copyright notice, this 
      +                          list
    38                           ;        of conditions and the following disclaimer in the documentation and/or other
    39                           ;        materials provided with the distribution. Publication is not required when
    40                           ;        this file is used in an embedded application.
    41                           ; 
    42                           ;     3. Microchip's name may not be used to endorse or promote products derived from th
      +                          is
    43                           ;        software without specific prior written permission.
    44                           ; 
    45                           ; THIS SOFTWARE IS PROVIDED BY MICROCHIP "AS IS" AND ANY EXPRESS OR IMPLIED WARRANTIES,
    46                           ; INCLUDING, BUT NOT LIMITED TO, THE IMPLIED WARRANTIES OF MERCHANTABILITY AND FITNESS F
      +                          OR
    47                           ; PURPOSE ARE DISCLAIMED.  IN NO EVENT SHALL MICROCHIP BE LIABLE FOR ANY DIRECT, INDIREC
      +                          T,
    48                           ; INCIDENTAL, SPECIAL, EXEMPLARY, OR CONSEQUENTIAL DAMAGES (INCLUDING BUT NOT LIMITED TO
    49                           ; PROCUREMENT OF SUBSTITUTE GOODS OR SERVICES; LOSS OF USE, DATA OR PROFITS; OR BUSINESS
    50                           ; INTERRUPTION) HOWSOEVER CAUSED AND ON ANY THEORY OF LIABILITY, WHETHER IN CONTRACT, ST
      +                          RICT
    51                           ; LIABILITY, OR TORT (INCLUDING NEGLIGENCE OR OTHERWISE) ARISING IN ANY WAY OUT OF THE U
      +                          SE OF
    52                           ; THIS SOFTWARE, EVEN IF ADVISED OF THE POSSIBILITY OF SUCH DAMAGE.
    53                           ; 
    54                           ; 
    55                           ; Code-generator required, PIC18F46K20 Definitions
    56                           ; 
    57                           ; SFR Addresses
    58   000000                     _LATDbits	set	3980
    59   000000                     _TRISDbits	set	3989
    60   000000                     _WDTCONbits	set	4049
    61                           
    62                           ; #config settings
    63                           
    64                           	psect	cinit
    65   0011B4                     __pcinit:
    66                           	callstack 0
    67   0011B4                     start_initialization:
    68                           	callstack 0
    69   0011B4                     __initialization:
    70                           	callstack 0
    71                           
    72                           ; Clear objects allocated to COMRAM (17 bytes)
    73   0011B4  EE00  F001         	lfsr	0,__pbssCOMRAM
    74   0011B8  0E11               	movlw	17
    75   0011BA                     clear_0:
    76   0011BA  6AEE               	clrf	postinc0,c
    77   0011BC  06E8               	decf	wreg,f,c
    78   0011BE  E1FD               	bnz	clear_0
    79   0011C0                     end_of_initialization:
    80                           	callstack 0
    81   0011C0                     __end_of__initialization:
    82                           	callstack 0
    83   0011C0  0100               	movlb	0
    84   0011C2  EF52  F008         	goto	_main	;jump to C main() function
    85                           
    86                           	psect	bssCOMRAM
    87   000001                     __pbssCOMRAM:
    88                           	callstack 0
    89   000001                     _wgdmMainFuncTurn:
    90                           	callstack 0
    91   000001                     	ds	2
    92   000003                     _lastCheckTime:
    93                           	callstack 0
    94   000003                     	ds	2
    95   000005                     _mainFuncCalls:
    96                           	callstack 0
    97   000005                     	ds	2
    98   000007                     _notifications:
    99                           	callstack 0
   100   000007                     	ds	2
   101   000009                     _isr:
   102                           	callstack 0
   103   000009                     	ds	2
   104   00000B                     _Calls:
   105                           	callstack 0
   106   00000B                     	ds	2
   107   00000D                     _ledCounter:
   108                           	callstack 0
   109   00000D                     	ds	2
   110   00000F                     _ledstate:
   111                           	callstack 0
   112   00000F                     	ds	2
   113   000011                     _wdgmStatus:
   114                           	callstack 0
   115   000011                     	ds	1
   116                           
   117                           	psect	cstackCOMRAM
   118   000012                     __pcstackCOMRAM:
   119                           	callstack 0
   120   000012                     GPIO_Write@PinData:
   121                           	callstack 0
   122                           
   123                           ; 1 bytes @ 0x0
   124   000012                     	ds	1
   125   000013                     ??_main:
   126   000013                     
   127                           ; 1 bytes @ 0x1
   128   000013                     	ds	2
   129                           
   130 ;;
   131 ;;Main: autosize = 0, tempsize = 2, incstack = 0, save=0
   132 ;;
   133 ;; *************** function _main *****************
   134 ;; Defined at:
   135 ;;		line 18 in file "GPIO/main.c"
   136 ;; Parameters:    Size  Location     Type
   137 ;;		None
   138 ;; Auto vars:     Size  Location     Type
   139 ;;		None
   140 ;; Return value:  Size  Location     Type
   141 ;;                  2   22[None  ] int 
   142 ;; Registers used:
   143 ;;		wreg, status,2, status,0, cstack
   144 ;; Tracked objects:
   145 ;;		On entry : 0/0
   146 ;;		On exit  : 0/0
   147 ;;		Unchanged: 0/0
   148 ;; Data sizes:     COMRAM   BANK0   BANK1   BANK2   BANK3   BANK4   BANK5   BANK6   BANK7   BANK8   BANK9  BANK10  BANK1
      +1  BANK12  BANK13  BANK14  BANK15
   149 ;;      Params:         0       0       0       0       0       0       0       0       0       0       0       0       
      +0       0       0       0       0
   150 ;;      Locals:         0       0       0       0       0       0       0       0       0       0       0       0       
      +0       0       0       0       0
   151 ;;      Temps:          2       0       0       0       0       0       0       0       0       0       0       0       
      +0       0       0       0       0
   152 ;;      Totals:         2       0       0       0       0       0       0       0       0       0       0       0       
      +0       0       0       0       0
   153 ;;Total ram usage:        2 bytes
   154 ;; Hardware stack levels required when called: 2
   155 ;; This function calls:
   156 ;;		_LEDM_Init
   157 ;;		_LEDM_Manage
   158 ;;		_WDGDrv_Init
   159 ;;		_WDGDrv_IsrNotification
   160 ;;		_WDGM_Init
   161 ;;		_WDGM_MainFunction
   162 ;; This function is called by:
   163 ;;		Startup code after reset
   164 ;; This function uses a non-reentrant model
   165 ;;
   166                           
   167                           	psect	text0
   168   0010A4                     __ptext0:
   169                           	callstack 0
   170   0010A4                     _main:
   171                           	callstack 29
   172   0010A4                     
   173                           ;GPIO/main.c: 19:         TRISDbits.TRISD1 = 0;
   174   0010A4  9295               	bcf	149,1,c	;volatile
   175                           
   176                           ;GPIO/main.c: 20:         LATDbits.LATD1 = 1;
   177   0010A6  828C               	bsf	140,1,c	;volatile
   178   0010A8                     
   179                           ;GPIO/main.c: 21:         _delay((unsigned long)((100)*(8000000/4000.0)));
   180   0010A8  0E02               	movlw	2
   181   0010AA  6E14               	movwf	(??_main+1)^0,c
   182   0010AC  0E04               	movlw	4
   183   0010AE  6E13               	movwf	??_main^0,c
   184   0010B0  0EBA               	movlw	186
   185   0010B2                     u217:
   186   0010B2  2EE8               	decfsz	wreg,f,c
   187   0010B4  D7FE               	bra	u217
   188   0010B6  2E13               	decfsz	??_main^0,f,c
   189   0010B8  D7FC               	bra	u217
   190   0010BA  2E14               	decfsz	(??_main+1)^0,f,c
   191   0010BC  D7FA               	bra	u217
   192   0010BE  F000 F000          	nop2	
   193   0010C2                     
   194                           ;GPIO/main.c: 22:         LATDbits.LATD1 = 0;
   195   0010C2  928C               	bcf	140,1,c	;volatile
   196                           
   197                           ;GPIO/main.c: 23:         _delay((unsigned long)((100)*(8000000/4000.0)));
   198   0010C4  0E02               	movlw	2
   199   0010C6  6E14               	movwf	(??_main+1)^0,c
   200   0010C8  0E04               	movlw	4
   201   0010CA  6E13               	movwf	??_main^0,c
   202   0010CC  0EBA               	movlw	186
   203   0010CE                     u227:
   204   0010CE  2EE8               	decfsz	wreg,f,c
   205   0010D0  D7FE               	bra	u227
   206   0010D2  2E13               	decfsz	??_main^0,f,c
   207   0010D4  D7FC               	bra	u227
   208   0010D6  2E14               	decfsz	(??_main+1)^0,f,c
   209   0010D8  D7FA               	bra	u227
   210   0010DA  F000 F000          	nop2	
   211   0010DE                     
   212                           ;GPIO/main.c: 27:     LEDM_Init();
   213   0010DE  ECEC  F008         	call	_LEDM_Init	;wreg free
   214   0010E2                     
   215                           ;GPIO/main.c: 28:     WDGDrv_Init();
   216   0010E2  ECF4  F008         	call	_WDGDrv_Init	;wreg free
   217   0010E6                     
   218                           ;GPIO/main.c: 29:     WDGM_Init();
   219   0010E6  ECCF  F008         	call	_WDGM_Init	;wreg free
   220   0010EA                     l899:
   221                           
   222                           ;GPIO/main.c: 33:         LEDM_Manage();
   223   0010EA  EC88  F008         	call	_LEDM_Manage	;wreg free
   224   0010EE                     
   225                           ;GPIO/main.c: 34:         WDGM_MainFunction();
   226   0010EE  EC01  F008         	call	_WDGM_MainFunction	;wreg free
   227   0010F2                     
   228                           ;GPIO/main.c: 35:         WDGDrv_IsrNotification();
   229   0010F2  ECB5  F008         	call	_WDGDrv_IsrNotification	;wreg free
   230   0010F6                     
   231                           ;GPIO/main.c: 36:         _delay((unsigned long)((10)*(8000000/4000.0)));
   232   0010F6  0E1A               	movlw	26
   233   0010F8  6E13               	movwf	??_main^0,c
   234   0010FA  0EF8               	movlw	248
   235   0010FC                     u237:
   236   0010FC  2EE8               	decfsz	wreg,f,c
   237   0010FE  D7FE               	bra	u237
   238   001100  2E13               	decfsz	??_main^0,f,c
   239   001102  D7FC               	bra	u237
   240   001104  F000 F000          	nop2	
   241   001108  EF75  F008         	goto	l899
   242   00110C  EF00  F000         	goto	start
   243   001110                     __end_of_main:
   244                           	callstack 0
   245                           
   246 ;; *************** function _WDGM_MainFunction *****************
   247 ;; Defined at:
   248 ;;		line 17 in file "GPIO/WDGM.c"
   249 ;; Parameters:    Size  Location     Type
   250 ;;		None
   251 ;; Auto vars:     Size  Location     Type
   252 ;;		None
   253 ;; Return value:  Size  Location     Type
   254 ;;                  1    wreg      void 
   255 ;; Registers used:
   256 ;;		wreg, status,2, status,0
   257 ;; Tracked objects:
   258 ;;		On entry : 0/0
   259 ;;		On exit  : 0/0
   260 ;;		Unchanged: 0/0
   261 ;; Data sizes:     COMRAM   BANK0   BANK1   BANK2   BANK3   BANK4   BANK5   BANK6   BANK7   BANK8   BANK9  BANK10  BANK1
      +1  BANK12  BANK13  BANK14  BANK15
   262 ;;      Params:         0       0       0       0       0       0       0       0       0       0       0       0       
      +0       0       0       0       0
   263 ;;      Locals:         0       0       0       0       0       0       0       0       0       0       0       0       
      +0       0       0       0       0
   264 ;;      Temps:          0       0       0       0       0       0       0       0       0       0       0       0       
      +0       0       0       0       0
   265 ;;      Totals:         0       0       0       0       0       0       0       0       0       0       0       0       
      +0       0       0       0       0
   266 ;;Total ram usage:        0 bytes
   267 ;; Hardware stack levels used: 1
   268 ;; This function calls:
   269 ;;		Nothing
   270 ;; This function is called by:
   271 ;;		_main
   272 ;; This function uses a non-reentrant model
   273 ;;
   274                           
   275                           	psect	text1
   276   001002                     __ptext1:
   277                           	callstack 0
   278   001002                     _WDGM_MainFunction:
   279                           	callstack 30
   280   001002                     
   281                           ;GPIO/WDGM.c: 21:     Calls++;
   282   001002  4A0B               	infsnz	_Calls^0,f,c	;volatile
   283   001004  2A0C               	incf	(_Calls+1)^0,f,c	;volatile
   284   001006                     
   285                           ;GPIO/WDGM.c: 23:     if (++wgdmMainFuncTurn >= 2) {
   286   001006  4A01               	infsnz	_wgdmMainFuncTurn^0,f,c	;volatile
   287   001008  2A02               	incf	(_wgdmMainFuncTurn+1)^0,f,c	;volatile
   288   00100A  BE02               	btfsc	(_wgdmMainFuncTurn+1)^0,7,c	;volatile
   289   00100C  EF11  F008         	goto	u151
   290   001010  5002               	movf	(_wgdmMainFuncTurn+1)^0,w,c	;volatile
   291   001012  E109               	bnz	u150
   292   001014  0E02               	movlw	2
   293   001016  5C01               	subwf	_wgdmMainFuncTurn^0,w,c	;volatile
   294   001018  A0D8               	btfss	status,0,c
   295   00101A  EF11  F008         	goto	u151
   296   00101E  EF13  F008         	goto	u150
   297   001022                     u151:
   298   001022  EF51  F008         	goto	l91
   299   001026                     u150:
   300   001026                     
   301                           ;GPIO/WDGM.c: 24:         wgdmMainFuncTurn = 0;
   302   001026  0E00               	movlw	0
   303   001028  6E02               	movwf	(_wgdmMainFuncTurn+1)^0,c	;volatile
   304   00102A  0E00               	movlw	0
   305   00102C  6E01               	movwf	_wgdmMainFuncTurn^0,c	;volatile
   306   00102E                     
   307                           ;GPIO/WDGM.c: 27:         if (++lastCheckTime >= 5) {
   308   00102E  4A03               	infsnz	_lastCheckTime^0,f,c	;volatile
   309   001030  2A04               	incf	(_lastCheckTime+1)^0,f,c	;volatile
   310   001032  BE04               	btfsc	(_lastCheckTime+1)^0,7,c	;volatile
   311   001034  EF25  F008         	goto	u161
   312   001038  5004               	movf	(_lastCheckTime+1)^0,w,c	;volatile
   313   00103A  E109               	bnz	u160
   314   00103C  0E05               	movlw	5
   315   00103E  5C03               	subwf	_lastCheckTime^0,w,c	;volatile
   316   001040  A0D8               	btfss	status,0,c
   317   001042  EF25  F008         	goto	u161
   318   001046  EF27  F008         	goto	u160
   319   00104A                     u161:
   320   00104A  EF51  F008         	goto	l91
   321   00104E                     u160:
   322   00104E                     
   323                           ;GPIO/WDGM.c: 28:             lastCheckTime = 0;
   324   00104E  0E00               	movlw	0
   325   001050  6E04               	movwf	(_lastCheckTime+1)^0,c	;volatile
   326   001052  0E00               	movlw	0
   327   001054  6E03               	movwf	_lastCheckTime^0,c	;volatile
   328   001056                     
   329                           ;GPIO/WDGM.c: 31:             if (mainFuncCalls >= 8 && mainFuncCalls <= 12) {
   330   001056  BE06               	btfsc	(_mainFuncCalls+1)^0,7,c	;volatile
   331   001058  EF37  F008         	goto	u171
   332   00105C  5006               	movf	(_mainFuncCalls+1)^0,w,c	;volatile
   333   00105E  E109               	bnz	u170
   334   001060  0E08               	movlw	8
   335   001062  5C05               	subwf	_mainFuncCalls^0,w,c	;volatile
   336   001064  A0D8               	btfss	status,0,c
   337   001066  EF37  F008         	goto	u171
   338   00106A  EF39  F008         	goto	u170
   339   00106E                     u171:
   340   00106E  EF4B  F008         	goto	l877
   341   001072                     u170:
   342   001072  BE06               	btfsc	(_mainFuncCalls+1)^0,7,c	;volatile
   343   001074  EF47  F008         	goto	u180
   344   001078  5006               	movf	(_mainFuncCalls+1)^0,w,c	;volatile
   345   00107A  E107               	bnz	u181
   346   00107C  0E0D               	movlw	13
   347   00107E  5C05               	subwf	_mainFuncCalls^0,w,c	;volatile
   348   001080  B0D8               	btfsc	status,0,c
   349   001082  EF45  F008         	goto	u181
   350   001086  EF47  F008         	goto	u180
   351   00108A                     u181:
   352   00108A  EF4B  F008         	goto	l877
   353   00108E                     u180:
   354   00108E                     
   355                           ;GPIO/WDGM.c: 32:                 wdgmStatus = OK;
   356   00108E  0E00               	movlw	0
   357   001090  6E11               	movwf	_wdgmStatus^0,c
   358                           
   359                           ;GPIO/WDGM.c: 33:             } else {
   360   001092  EF4D  F008         	goto	l90
   361   001096                     l877:
   362                           
   363                           ;GPIO/WDGM.c: 34:                 wdgmStatus = NOK;
   364   001096  0E01               	movlw	1
   365   001098  6E11               	movwf	_wdgmStatus^0,c
   366   00109A                     l90:
   367                           
   368                           ;GPIO/WDGM.c: 36:             mainFuncCalls = 0;
   369   00109A  0E00               	movlw	0
   370   00109C  6E06               	movwf	(_mainFuncCalls+1)^0,c	;volatile
   371   00109E  0E00               	movlw	0
   372   0010A0  6E05               	movwf	_mainFuncCalls^0,c	;volatile
   373   0010A2                     l91:
   374   0010A2  0012               	return		;funcret
   375   0010A4                     __end_of_WDGM_MainFunction:
   376                           	callstack 0
   377                           
   378 ;; *************** function _WDGM_Init *****************
   379 ;; Defined at:
   380 ;;		line 9 in file "GPIO/WDGM.c"
   381 ;; Parameters:    Size  Location     Type
   382 ;;		None
   383 ;; Auto vars:     Size  Location     Type
   384 ;;		None
   385 ;; Return value:  Size  Location     Type
   386 ;;                  1    wreg      void 
   387 ;; Registers used:
   388 ;;		wreg, status,2
   389 ;; Tracked objects:
   390 ;;		On entry : 0/0
   391 ;;		On exit  : 0/0
   392 ;;		Unchanged: 0/0
   393 ;; Data sizes:     COMRAM   BANK0   BANK1   BANK2   BANK3   BANK4   BANK5   BANK6   BANK7   BANK8   BANK9  BANK10  BANK1
      +1  BANK12  BANK13  BANK14  BANK15
   394 ;;      Params:         0       0       0       0       0       0       0       0       0       0       0       0       
      +0       0       0       0       0
   395 ;;      Locals:         0       0       0       0       0       0       0       0       0       0       0       0       
      +0       0       0       0       0
   396 ;;      Temps:          0       0       0       0       0       0       0       0       0       0       0       0       
      +0       0       0       0       0
   397 ;;      Totals:         0       0       0       0       0       0       0       0       0       0       0       0       
      +0       0       0       0       0
   398 ;;Total ram usage:        0 bytes
   399 ;; Hardware stack levels used: 1
   400 ;; This function calls:
   401 ;;		Nothing
   402 ;; This function is called by:
   403 ;;		_main
   404 ;; This function uses a non-reentrant model
   405 ;;
   406                           
   407                           	psect	text2
   408   00119E                     __ptext2:
   409                           	callstack 0
   410   00119E                     _WDGM_Init:
   411                           	callstack 30
   412   00119E                     
   413                           ;GPIO/WDGM.c: 11:     mainFuncCalls = 0;
   414   00119E  0E00               	movlw	0
   415   0011A0  6E06               	movwf	(_mainFuncCalls+1)^0,c	;volatile
   416   0011A2  0E00               	movlw	0
   417   0011A4  6E05               	movwf	_mainFuncCalls^0,c	;volatile
   418                           
   419                           ;GPIO/WDGM.c: 12:     lastCheckTime = 0;
   420   0011A6  0E00               	movlw	0
   421   0011A8  6E04               	movwf	(_lastCheckTime+1)^0,c	;volatile
   422   0011AA  0E00               	movlw	0
   423   0011AC  6E03               	movwf	_lastCheckTime^0,c	;volatile
   424                           
   425                           ;GPIO/WDGM.c: 13:     wdgmStatus = OK;
   426   0011AE  0E00               	movlw	0
   427   0011B0  6E11               	movwf	_wdgmStatus^0,c
   428   0011B2  0012               	return		;funcret
   429   0011B4                     __end_of_WDGM_Init:
   430                           	callstack 0
   431                           
   432 ;; *************** function _WDGDrv_IsrNotification *****************
   433 ;; Defined at:
   434 ;;		line 21 in file "GPIO/WDGDRV.c"
   435 ;; Parameters:    Size  Location     Type
   436 ;;		None
   437 ;; Auto vars:     Size  Location     Type
   438 ;;		None
   439 ;; Return value:  Size  Location     Type
   440 ;;                  1    wreg      void 
   441 ;; Registers used:
   442 ;;		wreg, status,2, status,0, cstack
   443 ;; Tracked objects:
   444 ;;		On entry : 0/0
   445 ;;		On exit  : 0/0
   446 ;;		Unchanged: 0/0
   447 ;; Data sizes:     COMRAM   BANK0   BANK1   BANK2   BANK3   BANK4   BANK5   BANK6   BANK7   BANK8   BANK9  BANK10  BANK1
      +1  BANK12  BANK13  BANK14  BANK15
   448 ;;      Params:         0       0       0       0       0       0       0       0       0       0       0       0       
      +0       0       0       0       0
   449 ;;      Locals:         0       0       0       0       0       0       0       0       0       0       0       0       
      +0       0       0       0       0
   450 ;;      Temps:          0       0       0       0       0       0       0       0       0       0       0       0       
      +0       0       0       0       0
   451 ;;      Totals:         0       0       0       0       0       0       0       0       0       0       0       0       
      +0       0       0       0       0
   452 ;;Total ram usage:        0 bytes
   453 ;; Hardware stack levels used: 1
   454 ;; Hardware stack levels required when called: 1
   455 ;; This function calls:
   456 ;;		_WDGM_PovideSuppervisionStatus
   457 ;; This function is called by:
   458 ;;		_main
   459 ;; This function uses a non-reentrant model
   460 ;;
   461                           
   462                           	psect	text3
   463   00116A                     __ptext3:
   464                           	callstack 0
   465   00116A                     _WDGDrv_IsrNotification:
   466                           	callstack 29
   467   00116A                     
   468                           ;GPIO/WDGDRV.c: 27: 
   469   00116A  4A09               	infsnz	_isr^0,f,c	;volatile
   470   00116C  2A0A               	incf	(_isr+1)^0,f,c	;volatile
   471   00116E                     
   472                           ;GPIO/WDGDRV.c: 30: 
   473   00116E  ECF2  F008         	call	_WDGM_PovideSuppervisionStatus	;wreg free
   474   001172  0900               	iorlw	0
   475   001174  A4D8               	btfss	status,2,c
   476   001176  EFBF  F008         	goto	u191
   477   00117A  EFC1  F008         	goto	u190
   478   00117E                     u191:
   479   00117E  EFCE  F008         	goto	l71
   480   001182                     u190:
   481   001182  5009               	movf	_isr^0,w,c	;volatile
   482   001184  180B               	xorwf	_Calls^0,w,c	;volatile
   483   001186  E107               	bnz	u201
   484   001188  500A               	movf	(_isr+1)^0,w,c	;volatile
   485   00118A  180C               	xorwf	(_Calls+1)^0,w,c	;volatile
   486   00118C  A4D8               	btfss	status,2,c
   487   00118E  EFCB  F008         	goto	u201
   488   001192  EFCD  F008         	goto	u200
   489   001196                     u201:
   490   001196  EFCE  F008         	goto	l71
   491   00119A                     u200:
   492   00119A  0004               	clrwdt		;# 
   493   00119C                     l71:
   494   00119C  0012               	return		;funcret
   495   00119E                     __end_of_WDGDrv_IsrNotification:
   496                           	callstack 0
   497                           
   498 ;; *************** function _WDGM_PovideSuppervisionStatus *****************
   499 ;; Defined at:
   500 ;;		line 41 in file "GPIO/WDGM.c"
   501 ;; Parameters:    Size  Location     Type
   502 ;;		None
   503 ;; Auto vars:     Size  Location     Type
   504 ;;		None
   505 ;; Return value:  Size  Location     Type
   506 ;;                  1    wreg      enum E2735
   507 ;; Registers used:
   508 ;;		wreg, status,2
   509 ;; Tracked objects:
   510 ;;		On entry : 0/0
   511 ;;		On exit  : 0/0
   512 ;;		Unchanged: 0/0
   513 ;; Data sizes:     COMRAM   BANK0   BANK1   BANK2   BANK3   BANK4   BANK5   BANK6   BANK7   BANK8   BANK9  BANK10  BANK1
      +1  BANK12  BANK13  BANK14  BANK15
   514 ;;      Params:         0       0       0       0       0       0       0       0       0       0       0       0       
      +0       0       0       0       0
   515 ;;      Locals:         0       0       0       0       0       0       0       0       0       0       0       0       
      +0       0       0       0       0
   516 ;;      Temps:          0       0       0       0       0       0       0       0       0       0       0       0       
      +0       0       0       0       0
   517 ;;      Totals:         0       0       0       0       0       0       0       0       0       0       0       0       
      +0       0       0       0       0
   518 ;;Total ram usage:        0 bytes
   519 ;; Hardware stack levels used: 1
   520 ;; This function calls:
   521 ;;		Nothing
   522 ;; This function is called by:
   523 ;;		_WDGDrv_IsrNotification
   524 ;; This function uses a non-reentrant model
   525 ;;
   526                           
   527                           	psect	text4
   528   0011E4                     __ptext4:
   529                           	callstack 0
   530   0011E4                     _WDGM_PovideSuppervisionStatus:
   531                           	callstack 29
   532   0011E4                     
   533                           ;GPIO/WDGM.c: 43:     return wdgmStatus;
   534   0011E4  5011               	movf	_wdgmStatus^0,w,c
   535   0011E6  0012               	return		;funcret
   536   0011E8                     __end_of_WDGM_PovideSuppervisionStatus:
   537                           	callstack 0
   538                           
   539 ;; *************** function _WDGDrv_Init *****************
   540 ;; Defined at:
   541 ;;		line 8 in file "GPIO/WDGDRV.c"
   542 ;; Parameters:    Size  Location     Type
   543 ;;		None
   544 ;; Auto vars:     Size  Location     Type
   545 ;;		None
   546 ;; Return value:  Size  Location     Type
   547 ;;                  1    wreg      void 
   548 ;; Registers used:
   549 ;;		None
   550 ;; Tracked objects:
   551 ;;		On entry : 0/0
   552 ;;		On exit  : 0/0
   553 ;;		Unchanged: 0/0
   554 ;; Data sizes:     COMRAM   BANK0   BANK1   BANK2   BANK3   BANK4   BANK5   BANK6   BANK7   BANK8   BANK9  BANK10  BANK1
      +1  BANK12  BANK13  BANK14  BANK15
   555 ;;      Params:         0       0       0       0       0       0       0       0       0       0       0       0       
      +0       0       0       0       0
   556 ;;      Locals:         0       0       0       0       0       0       0       0       0       0       0       0       
      +0       0       0       0       0
   557 ;;      Temps:          0       0       0       0       0       0       0       0       0       0       0       0       
      +0       0       0       0       0
   558 ;;      Totals:         0       0       0       0       0       0       0       0       0       0       0       0       
      +0       0       0       0       0
   559 ;;Total ram usage:        0 bytes
   560 ;; Hardware stack levels used: 1
   561 ;; This function calls:
   562 ;;		Nothing
   563 ;; This function is called by:
   564 ;;		_main
   565 ;; This function uses a non-reentrant model
   566 ;;
   567                           
   568                           	psect	text5
   569   0011E8                     __ptext5:
   570                           	callstack 0
   571   0011E8                     _WDGDrv_Init:
   572                           	callstack 30
   573   0011E8                     
   574                           ;GPIO/WDGDRV.c: 14:     isr++;
   575   0011E8  80D1               	bsf	209,0,c	;volatile
   576   0011EA  0012               	return		;funcret
   577   0011EC                     __end_of_WDGDrv_Init:
   578                           	callstack 0
   579                           
   580 ;; *************** function _LEDM_Manage *****************
   581 ;; Defined at:
   582 ;;		line 11 in file "GPIO/LEDM.c"
   583 ;; Parameters:    Size  Location     Type
   584 ;;		None
   585 ;; Auto vars:     Size  Location     Type
   586 ;;		None
   587 ;; Return value:  Size  Location     Type
   588 ;;                  1    wreg      void 
   589 ;; Registers used:
   590 ;;		wreg, status,2, status,0, cstack
   591 ;; Tracked objects:
   592 ;;		On entry : 0/0
   593 ;;		On exit  : 0/0
   594 ;;		Unchanged: 0/0
   595 ;; Data sizes:     COMRAM   BANK0   BANK1   BANK2   BANK3   BANK4   BANK5   BANK6   BANK7   BANK8   BANK9  BANK10  BANK1
      +1  BANK12  BANK13  BANK14  BANK15
   596 ;;      Params:         0       0       0       0       0       0       0       0       0       0       0       0       
      +0       0       0       0       0
   597 ;;      Locals:         0       0       0       0       0       0       0       0       0       0       0       0       
      +0       0       0       0       0
   598 ;;      Temps:          0       0       0       0       0       0       0       0       0       0       0       0       
      +0       0       0       0       0
   599 ;;      Totals:         0       0       0       0       0       0       0       0       0       0       0       0       
      +0       0       0       0       0
   600 ;;Total ram usage:        0 bytes
   601 ;; Hardware stack levels used: 1
   602 ;; Hardware stack levels required when called: 1
   603 ;; This function calls:
   604 ;;		_GPIO_Write
   605 ;;		_WDGM_AlivenessIndication
   606 ;; This function is called by:
   607 ;;		_main
   608 ;; This function uses a non-reentrant model
   609 ;;
   610                           
   611                           	psect	text6
   612   001110                     __ptext6:
   613                           	callstack 0
   614   001110                     _LEDM_Manage:
   615                           	callstack 29
   616   001110                     
   617                           ;GPIO/LEDM.c: 12:     ledCounter=ledCounter+10;
   618   001110  0E0A               	movlw	10
   619   001112  240D               	addwf	_ledCounter^0,w,c	;volatile
   620   001114  6E0D               	movwf	_ledCounter^0,c	;volatile
   621   001116  0E00               	movlw	0
   622   001118  200E               	addwfc	(_ledCounter+1)^0,w,c	;volatile
   623   00111A  6E0E               	movwf	(_ledCounter+1)^0,c	;volatile
   624                           
   625                           ;GPIO/LEDM.c: 14:     if (ledCounter>500){
   626   00111C  BE0E               	btfsc	(_ledCounter+1)^0,7,c	;volatile
   627   00111E  EF9A  F008         	goto	u121
   628   001122  0EF5               	movlw	245
   629   001124  5C0D               	subwf	_ledCounter^0,w,c	;volatile
   630   001126  0E01               	movlw	1
   631   001128  580E               	subwfb	(_ledCounter+1)^0,w,c	;volatile
   632   00112A  A0D8               	btfss	status,0,c
   633   00112C  EF9A  F008         	goto	u121
   634   001130  EF9C  F008         	goto	u120
   635   001134                     u121:
   636   001134  EFB2  F008         	goto	l859
   637   001138                     u120:
   638   001138                     
   639                           ;GPIO/LEDM.c: 15:         ledstate=!ledstate;
   640   001138  500F               	movf	_ledstate^0,w,c	;volatile
   641   00113A  1010               	iorwf	(_ledstate+1)^0,w,c	;volatile
   642   00113C  B4D8               	btfsc	status,2,c
   643   00113E  EFA3  F008         	goto	u131
   644   001142  EFA6  F008         	goto	u130
   645   001146                     u131:
   646   001146  0E01               	movlw	1
   647   001148  EFA7  F008         	goto	u140
   648   00114C                     u130:
   649   00114C  0E00               	movlw	0
   650   00114E                     u140:
   651   00114E  6E0F               	movwf	_ledstate^0,c	;volatile
   652   001150  6A10               	clrf	(_ledstate+1)^0,c	;volatile
   653   001152                     
   654                           ;GPIO/LEDM.c: 16:         GPIO_Write(5,ledstate);
   655   001152  C00F  F012         	movff	_ledstate,GPIO_Write@PinData	;volatile
   656   001156  0E05               	movlw	5
   657   001158  ECE3  F008         	call	_GPIO_Write
   658   00115C                     
   659                           ;GPIO/LEDM.c: 17:         ledCounter=0;
   660   00115C  0E00               	movlw	0
   661   00115E  6E0E               	movwf	(_ledCounter+1)^0,c	;volatile
   662   001160  0E00               	movlw	0
   663   001162  6E0D               	movwf	_ledCounter^0,c	;volatile
   664   001164                     l859:
   665                           
   666                           ;GPIO/LEDM.c: 20:    WDGM_AlivenessIndication();
   667   001164  ECE9  F008         	call	_WDGM_AlivenessIndication	;wreg free
   668   001168  0012               	return		;funcret
   669   00116A                     __end_of_LEDM_Manage:
   670                           	callstack 0
   671                           
   672 ;; *************** function _WDGM_AlivenessIndication *****************
   673 ;; Defined at:
   674 ;;		line 46 in file "GPIO/WDGM.c"
   675 ;; Parameters:    Size  Location     Type
   676 ;;		None
   677 ;; Auto vars:     Size  Location     Type
   678 ;;		None
   679 ;; Return value:  Size  Location     Type
   680 ;;                  1    wreg      void 
   681 ;; Registers used:
   682 ;;		status,2, status,0
   683 ;; Tracked objects:
   684 ;;		On entry : 0/0
   685 ;;		On exit  : 0/0
   686 ;;		Unchanged: 0/0
   687 ;; Data sizes:     COMRAM   BANK0   BANK1   BANK2   BANK3   BANK4   BANK5   BANK6   BANK7   BANK8   BANK9  BANK10  BANK1
      +1  BANK12  BANK13  BANK14  BANK15
   688 ;;      Params:         0       0       0       0       0       0       0       0       0       0       0       0       
      +0       0       0       0       0
   689 ;;      Locals:         0       0       0       0       0       0       0       0       0       0       0       0       
      +0       0       0       0       0
   690 ;;      Temps:          0       0       0       0       0       0       0       0       0       0       0       0       
      +0       0       0       0       0
   691 ;;      Totals:         0       0       0       0       0       0       0       0       0       0       0       0       
      +0       0       0       0       0
   692 ;;Total ram usage:        0 bytes
   693 ;; Hardware stack levels used: 1
   694 ;; This function calls:
   695 ;;		Nothing
   696 ;; This function is called by:
   697 ;;		_LEDM_Manage
   698 ;; This function uses a non-reentrant model
   699 ;;
   700                           
   701                           	psect	text7
   702   0011D2                     __ptext7:
   703                           	callstack 0
   704   0011D2                     _WDGM_AlivenessIndication:
   705                           	callstack 29
   706   0011D2                     
   707                           ;GPIO/WDGM.c: 49:     mainFuncCalls++;
   708   0011D2  4A05               	infsnz	_mainFuncCalls^0,f,c	;volatile
   709   0011D4  2A06               	incf	(_mainFuncCalls+1)^0,f,c	;volatile
   710   0011D6  0012               	return		;funcret
   711   0011D8                     __end_of_WDGM_AlivenessIndication:
   712                           	callstack 0
   713                           
   714 ;; *************** function _GPIO_Write *****************
   715 ;; Defined at:
   716 ;;		line 9 in file "GPIO/GPIO.c"
   717 ;; Parameters:    Size  Location     Type
   718 ;;  PinId           1    wreg     unsigned char 
   719 ;;  PinData         1    0[COMRAM] unsigned char 
   720 ;; Auto vars:     Size  Location     Type
   721 ;;  PinId           1    0[COMRAM] unsigned char 
   722 ;; Return value:  Size  Location     Type
   723 ;;                  1    wreg      void 
   724 ;; Registers used:
   725 ;;		wreg
   726 ;; Tracked objects:
   727 ;;		On entry : 0/0
   728 ;;		On exit  : 0/0
   729 ;;		Unchanged: 0/0
   730 ;; Data sizes:     COMRAM   BANK0   BANK1   BANK2   BANK3   BANK4   BANK5   BANK6   BANK7   BANK8   BANK9  BANK10  BANK1
      +1  BANK12  BANK13  BANK14  BANK15
   731 ;;      Params:         1       0       0       0       0       0       0       0       0       0       0       0       
      +0       0       0       0       0
   732 ;;      Locals:         0       0       0       0       0       0       0       0       0       0       0       0       
      +0       0       0       0       0
   733 ;;      Temps:          0       0       0       0       0       0       0       0       0       0       0       0       
      +0       0       0       0       0
   734 ;;      Totals:         1       0       0       0       0       0       0       0       0       0       0       0       
      +0       0       0       0       0
   735 ;;Total ram usage:        1 bytes
   736 ;; Hardware stack levels used: 1
   737 ;; This function calls:
   738 ;;		Nothing
   739 ;; This function is called by:
   740 ;;		_LEDM_Manage
   741 ;; This function uses a non-reentrant model
   742 ;;
   743                           
   744                           	psect	text8
   745   0011C6                     __ptext8:
   746                           	callstack 0
   747   0011C6                     _GPIO_Write:
   748                           	callstack 29
   749   0011C6                     
   750                           ;GPIO/GPIO.c: 11:    LATDbits.LATD5 = PinData;
   751   0011C6  B012               	btfsc	GPIO_Write@PinData^0,0,c
   752   0011C8  D002               	bra	u115
   753   0011CA  9A8C               	bcf	140,5,c	;volatile
   754   0011CC  D001               	bra	u116
   755   0011CE                     u115:
   756   0011CE  8A8C               	bsf	140,5,c	;volatile
   757   0011D0                     u116:
   758   0011D0  0012               	return		;funcret
   759   0011D2                     __end_of_GPIO_Write:
   760                           	callstack 0
   761                           
   762 ;; *************** function _LEDM_Init *****************
   763 ;; Defined at:
   764 ;;		line 5 in file "GPIO/LEDM.c"
   765 ;; Parameters:    Size  Location     Type
   766 ;;		None
   767 ;; Auto vars:     Size  Location     Type
   768 ;;		None
   769 ;; Return value:  Size  Location     Type
   770 ;;                  1    wreg      void 
   771 ;; Registers used:
   772 ;;		cstack
   773 ;; Tracked objects:
   774 ;;		On entry : 0/0
   775 ;;		On exit  : 0/0
   776 ;;		Unchanged: 0/0
   777 ;; Data sizes:     COMRAM   BANK0   BANK1   BANK2   BANK3   BANK4   BANK5   BANK6   BANK7   BANK8   BANK9  BANK10  BANK1
      +1  BANK12  BANK13  BANK14  BANK15
   778 ;;      Params:         0       0       0       0       0       0       0       0       0       0       0       0       
      +0       0       0       0       0
   779 ;;      Locals:         0       0       0       0       0       0       0       0       0       0       0       0       
      +0       0       0       0       0
   780 ;;      Temps:          0       0       0       0       0       0       0       0       0       0       0       0       
      +0       0       0       0       0
   781 ;;      Totals:         0       0       0       0       0       0       0       0       0       0       0       0       
      +0       0       0       0       0
   782 ;;Total ram usage:        0 bytes
   783 ;; Hardware stack levels used: 1
   784 ;; Hardware stack levels required when called: 1
   785 ;; This function calls:
   786 ;;		_GPIO_Init
   787 ;; This function is called by:
   788 ;;		_main
   789 ;; This function uses a non-reentrant model
   790 ;;
   791                           
   792                           	psect	text9
   793   0011D8                     __ptext9:
   794                           	callstack 0
   795   0011D8                     _LEDM_Init:
   796                           	callstack 29
   797   0011D8                     
   798                           ;GPIO/LEDM.c: 6:     GPIO_Init();
   799   0011D8  ECEF  F008         	call	_GPIO_Init	;wreg free
   800   0011DC  0012               	return		;funcret
   801   0011DE                     __end_of_LEDM_Init:
   802                           	callstack 0
   803                           
   804 ;; *************** function _GPIO_Init *****************
   805 ;; Defined at:
   806 ;;		line 3 in file "GPIO/GPIO.c"
   807 ;; Parameters:    Size  Location     Type
   808 ;;		None
   809 ;; Auto vars:     Size  Location     Type
   810 ;;		None
   811 ;; Return value:  Size  Location     Type
   812 ;;                  1    wreg      void 
   813 ;; Registers used:
   814 ;;		None
   815 ;; Tracked objects:
   816 ;;		On entry : 0/0
   817 ;;		On exit  : 0/0
   818 ;;		Unchanged: 0/0
   819 ;; Data sizes:     COMRAM   BANK0   BANK1   BANK2   BANK3   BANK4   BANK5   BANK6   BANK7   BANK8   BANK9  BANK10  BANK1
      +1  BANK12  BANK13  BANK14  BANK15
   820 ;;      Params:         0       0       0       0       0       0       0       0       0       0       0       0       
      +0       0       0       0       0
   821 ;;      Locals:         0       0       0       0       0       0       0       0       0       0       0       0       
      +0       0       0       0       0
   822 ;;      Temps:          0       0       0       0       0       0       0       0       0       0       0       0       
      +0       0       0       0       0
   823 ;;      Totals:         0       0       0       0       0       0       0       0       0       0       0       0       
      +0       0       0       0       0
   824 ;;Total ram usage:        0 bytes
   825 ;; Hardware stack levels used: 1
   826 ;; This function calls:
   827 ;;		Nothing
   828 ;; This function is called by:
   829 ;;		_LEDM_Init
   830 ;; This function uses a non-reentrant model
   831 ;;
   832                           
   833                           	psect	text10
   834   0011DE                     __ptext10:
   835                           	callstack 0
   836   0011DE                     _GPIO_Init:
   837                           	callstack 29
   838   0011DE                     
   839                           ;GPIO/GPIO.c: 4:         TRISDbits.TRISD5 = 0;
   840   0011DE  9A95               	bcf	149,5,c	;volatile
   841                           
   842                           ;GPIO/GPIO.c: 5:         LATDbits.LATD5 = 0;
   843   0011E0  9A8C               	bcf	140,5,c	;volatile
   844   0011E2  0012               	return		;funcret
   845   0011E4                     __end_of_GPIO_Init:
   846                           	callstack 0
   847                           
   848                           	psect	smallconst
   849   001000                     __psmallconst:
   850                           	callstack 0
   851   001000  00                 	db	0
   852   001001  00                 	db	0	; dummy byte at the end
   853   000000                     
   854                           	psect	rparam
   855   000000                     
   856                           	psect	config
   857                           
   858                           ; Padding undefined space
   859   300000                     	org	3145728
   860   300000  FF                 	db	255
   861                           
   862                           ;Config register CONFIG1H @ 0x300001
   863                           ;	Oscillator Selection bits
   864                           ;	FOSC = HS, HS oscillator
   865                           ;	Fail-Safe Clock Monitor Enable bit
   866                           ;	FCMEN = 0x0, unprogrammed default
   867                           ;	Internal/External Oscillator Switchover bit
   868                           ;	IESO = 0x0, unprogrammed default
   869   300001                     	org	3145729
   870   300001  02                 	db	2
   871                           
   872                           ;Config register CONFIG2L @ 0x300002
   873                           ;	unspecified, using default values
   874                           ;	Power-up Timer Enable bit
   875                           ;	PWRTEN = 0x1, unprogrammed default
   876                           ;	Brown-out Reset Enable bits
   877                           ;	BOREN = 0x3, unprogrammed default
   878                           ;	Brown Out Reset Voltage bits
   879                           ;	BORV = 0x3, unprogrammed default
   880   300002                     	org	3145730
   881   300002  1F                 	db	31
   882                           
   883                           ;Config register CONFIG2H @ 0x300003
   884                           ;	Watchdog Timer Enable bit
   885                           ;	WDTEN = 0x1, unprogrammed default
   886                           ;	Watchdog Timer Postscale Select bits
   887                           ;	WDTPS = 128, 1:128
   888   300003                     	org	3145731
   889   300003  0F                 	db	15
   890                           tosu	equ	0xFFF
   891                           tosh	equ	0xFFE
   892                           tosl	equ	0xFFD
   893                           stkptr	equ	0xFFC
   894                           pclatu	equ	0xFFB
   895                           pclath	equ	0xFFA
   896                           pcl	equ	0xFF9
   897                           tblptru	equ	0xFF8
   898                           tblptrh	equ	0xFF7
   899                           tblptrl	equ	0xFF6
   900                           tablat	equ	0xFF5
   901                           prodh	equ	0xFF4
   902                           prodl	equ	0xFF3
   903                           indf0	equ	0xFEF
   904                           postinc0	equ	0xFEE
   905                           postdec0	equ	0xFED
   906                           preinc0	equ	0xFEC
   907                           plusw0	equ	0xFEB
   908                           fsr0h	equ	0xFEA
   909                           fsr0l	equ	0xFE9
   910                           wreg	equ	0xFE8
   911                           indf1	equ	0xFE7
   912                           postinc1	equ	0xFE6
   913                           postdec1	equ	0xFE5
   914                           preinc1	equ	0xFE4
   915                           plusw1	equ	0xFE3
   916                           fsr1h	equ	0xFE2
   917                           fsr1l	equ	0xFE1
   918                           bsr	equ	0xFE0
   919                           indf2	equ	0xFDF
   920                           postinc2	equ	0xFDE
   921                           postdec2	equ	0xFDD
   922                           preinc2	equ	0xFDC
   923                           plusw2	equ	0xFDB
   924                           fsr2h	equ	0xFDA
   925                           fsr2l	equ	0xFD9
   926                           status	equ	0xFD8

Data Sizes:
    Strings     0
    Constant    0
    Data        0
    BSS         17
    Persistent  0
    Stack       0

Auto Spaces:
    Space          Size  Autos    Used
    COMRAM           95      3      20
    BANK0           160      0       0
    BANK1           256      0       0
    BANK2           256      0       0
    BANK3           256      0       0
    BANK4           256      0       0
    BANK5           256      0       0
    BANK6           256      0       0
    BANK7           256      0       0
    BANK8           256      0       0
    BANK9           256      0       0
    BANK10          256      0       0
    BANK11          256      0       0
    BANK12          256      0       0
    BANK13          256      0       0
    BANK14          256      0       0
    BANK15           96      0       0

Pointer List with Targets:

    None.

Critical Paths under _main in COMRAM

    _LEDM_Manage->_GPIO_Write

Critical Paths under _main in BANK0

    None.

Critical Paths under _main in BANK1

    None.

Critical Paths under _main in BANK2

    None.

Critical Paths under _main in BANK3

    None.

Critical Paths under _main in BANK4

    None.

Critical Paths under _main in BANK5

    None.

Critical Paths under _main in BANK6

    None.

Critical Paths under _main in BANK7

    None.

Critical Paths under _main in BANK8

    None.

Critical Paths under _main in BANK9

    None.

Critical Paths under _main in BANK10

    None.

Critical Paths under _main in BANK11

    None.

Critical Paths under _main in BANK12

    None.

Critical Paths under _main in BANK13

    None.

Critical Paths under _main in BANK14

    None.

Critical Paths under _main in BANK15

    None.

Call Graph Tables:

 ---------------------------------------------------------------------------------
 (Depth) Function   	        Calls       Base Space   Used Autos Params    Refs
 ---------------------------------------------------------------------------------
 (0) _main                                                 2     2      0      98
                                              1 COMRAM     2     2      0
                          _LEDM_Init
                        _LEDM_Manage
                        _WDGDrv_Init
             _WDGDrv_IsrNotification
                          _WDGM_Init
                  _WDGM_MainFunction
 ---------------------------------------------------------------------------------
 (1) _WDGM_MainFunction                                    0     0      0       0
 ---------------------------------------------------------------------------------
 (1) _WDGM_Init                                            0     0      0       0
 ---------------------------------------------------------------------------------
 (1) _WDGDrv_IsrNotification                               0     0      0       0
      _WDGM_PovideSuppervisionStatus
 ---------------------------------------------------------------------------------
 (2) _WDGM_PovideSuppervisionStatus                        0     0      0       0
 ---------------------------------------------------------------------------------
 (1) _WDGDrv_Init                                          0     0      0       0
 ---------------------------------------------------------------------------------
 (1) _LEDM_Manage                                          0     0      0      98
                         _GPIO_Write
           _WDGM_AlivenessIndication
 ---------------------------------------------------------------------------------
 (2) _WDGM_AlivenessIndication                             0     0      0       0
 ---------------------------------------------------------------------------------
 (2) _GPIO_Write                                           2     1      1      98
                                              0 COMRAM     1     0      1
 ---------------------------------------------------------------------------------
 (1) _LEDM_Init                                            0     0      0       0
                          _GPIO_Init
 ---------------------------------------------------------------------------------
 (2) _GPIO_Init                                            0     0      0       0
 ---------------------------------------------------------------------------------
 Estimated maximum stack depth 2
 ---------------------------------------------------------------------------------

 Call Graph Graphs:

 _main (ROOT)
   _LEDM_Init
     _GPIO_Init
   _LEDM_Manage
     _GPIO_Write
     _WDGM_AlivenessIndication
   _WDGDrv_Init
   _WDGDrv_IsrNotification
     _WDGM_PovideSuppervisionStatus
   _WDGM_Init
   _WDGM_MainFunction

 Address spaces:
Name               Size   Autos  Total    Cost      Usage
BIGRAM             F5F      0       0      41        0.0%
EEDATA             400      0       0       0        0.0%
BITBANK14          100      0       0      33        0.0%
BANK14             100      0       0      34        0.0%
BITBANK13          100      0       0      32        0.0%
BANK13             100      0       0      30        0.0%
BITBANK12          100      0       0      28        0.0%
BANK12             100      0       0      29        0.0%
BITBANK11          100      0       0      26        0.0%
BANK11             100      0       0      27        0.0%
BITBANK10          100      0       0      24        0.0%
BANK10             100      0       0      25        0.0%
BITBANK9           100      0       0      22        0.0%
BANK9              100      0       0      23        0.0%
BITBANK8           100      0       0      20        0.0%
BANK8              100      0       0      21        0.0%
BITBANK7           100      0       0      18        0.0%
BANK7              100      0       0      19        0.0%
BITBANK6           100      0       0      16        0.0%
BANK6              100      0       0      17        0.0%
BITBANK5           100      0       0      14        0.0%
BANK5              100      0       0      15        0.0%
BITBANK4           100      0       0      12        0.0%
BANK4              100      0       0      13        0.0%
BITBANK3           100      0       0      10        0.0%
BANK3              100      0       0      11        0.0%
BITBANK2           100      0       0       8        0.0%
BANK2              100      0       0       9        0.0%
BITBANK1           100      0       0       6        0.0%
BANK1              100      0       0       7        0.0%
BITBANK0            A0      0       0       4        0.0%
BANK0               A0      0       0       5        0.0%
BITBANK15           60      0       0      35        0.0%
BANK15              60      0       0      36        0.0%
BITCOMRAM           5F      0       0       0        0.0%
COMRAM              5F      3      14       1       21.1%
BITBIGSFRhl         3B      0       0      38        0.0%
BITBIGSFRhh         2E      0       0      37        0.0%
BITBIGSFRll         2C      0       0      40        0.0%
BITBIGSFRlh          8      0       0      39        0.0%
BIGSFR               0      0       0     200        0.0%
BITSFR               0      0       0     200        0.0%
SFR                  0      0       0     200        0.0%
STACK                0      0       0       2        0.0%
NULL                 0      0       0       0        0.0%
ABS                  0      0      14      31        0.0%
DATA                 0      0      14       3        0.0%
CODE                 0      0       0       0        0.0%


Microchip Technology PIC18 Macro Assembler V2.46 build 20240104201356 
Symbol Table                                                                                   Mon Jun 17 21:30:45 2024

                    _WDGM_MainFunction 1002                                     l33 11E2  
                                   l36 11D0                                     l53 1168  
                                   l71 119C                                     l49 11DC  
                                   l66 11EA                                     l90 109A  
                                   l91 10A2                                     l84 11B2  
                                   l94 11E6                                     l97 11D6  
                   ?_WDGM_MainFunction 0012                            ?_GPIO_Write 0012  
                                  l901 10EE                                    l903 10F2  
                                  l905 10F6                                    l851 1110  
                                  l773 11DE                                    l845 11C6  
                                  l853 1138                                    l861 1002  
                                  l783 11D8                                    l855 1152  
                                  l847 11E4                                    l871 1056  
                                  l863 1006                                    l777 11D2  
                                  l857 115C                                    l785 11E8  
                                  l881 116E                                    l873 1072  
                                  l865 1026                                    l859 1164  
                                  l883 1182                                    l787 119E  
                                  l875 108E                                    l867 102E  
                                  l891 10C2                                    l885 119A  
                                  l877 1096                                    l869 104E  
                                  l893 10DE                                    l879 116A  
                                  l895 10E2                                    l887 10A4  
                                  l897 10E6                                    l889 10A8  
                                  l899 10EA                                    u120 1138  
                                  u200 119A                                    u121 1134  
                                  u201 1196                                    u130 114C  
                                  u115 11CE                                    u131 1146  
                                  u116 11D0                                    u140 114E  
                                  u150 1026                                    u151 1022  
                                  u160 104E                                    u161 104A  
                                  u217 10B2                                    u170 1072  
                                  u171 106E                                    u227 10CE  
                                  u180 108E                                    u181 108A  
                                  u237 10FC                                    u190 1182  
                                  u191 117E                                    _isr 0009  
                  ??_WDGM_MainFunction 0012                                    wreg 0FE8  
                                 _main 10A4                                   start 0000  
            __end_of_WDGM_MainFunction 10A4                           ___param_bank 0000  
                                ?_main 0012                                  _Calls 000B  
                        _lastCheckTime 0003             ??_WDGM_AlivenessIndication 0012  
                                status 0FD8                        __initialization 11B4  
                         __end_of_main 1110  __end_of_WDGM_PovideSuppervisionStatus 11E8  
        _WDGM_PovideSuppervisionStatus 11E4                                 ??_main 0013  
                    __end_of_LEDM_Init 11DE                          __activetblptr 0000  
                    __end_of_GPIO_Init 11E4                       _wgdmMainFuncTurn 0001  
             ??_WDGDrv_IsrNotification 0012                      __end_of_WDGM_Init 11B4  
                         ?_WDGDrv_Init 0012                                 clear_0 11BA  
                               isa$std 0001                           __mediumconst 0000  
                           __accesstop 0060                __end_of__initialization 11C0  
                        ___rparam_used 0001                         __pcstackCOMRAM 0012  
                         ??_GPIO_Write 0013         ?_WDGM_PovideSuppervisionStatus 0012  
                   __end_of_GPIO_Write 11D2                             _ledCounter 000D  
                              __Hparam 0000                                __Lparam 0000  
                         __psmallconst 1000                                __pcinit 11B4  
                              __ramtop 1000                                __ptext0 10A4  
                              __ptext1 1002                                __ptext2 119E  
                              __ptext3 116A                                __ptext4 11E4  
                              __ptext5 11E8                                __ptext6 1110  
                              __ptext7 11D2                                __ptext8 11C6  
                              __ptext9 11D8                 _WDGDrv_IsrNotification 116A  
                            _LEDM_Init 11D8                              _GPIO_Init 11DE  
                 end_of_initialization 11C0              ?_WDGM_AlivenessIndication 0012  
                              postinc0 0FEE                             _wdgmStatus 0011  
                            _WDGM_Init 119E                              _TRISDbits 0F95  
                           ?_LEDM_Init 0012                             ?_GPIO_Init 0012  
                        ??_LEDM_Manage 0013                             ?_WDGM_Init 0012  
                  start_initialization 11B4                      GPIO_Write@PinData 0012  
      ??_WDGM_PovideSuppervisionStatus 0012                    __end_of_LEDM_Manage 116A  
                          __pbssCOMRAM 0001                            ??_LEDM_Init 0012  
                          ??_GPIO_Init 0012                ?_WDGDrv_IsrNotification 0012  
                          ??_WDGM_Init 0012                            __smallconst 1000  
     __end_of_WDGM_AlivenessIndication 11D8                               _LATDbits 0F8C  
                          _LEDM_Manage 1110                          ??_WDGDrv_Init 0012  
       __end_of_WDGDrv_IsrNotification 119E                          _notifications 0007  
                             __Hrparam 0000                               __Lrparam 0000  
                  __end_of_WDGDrv_Init 11EC                               __ptext10 11DE  
                             _ledstate 000F               _WDGM_AlivenessIndication 11D2  
                             isa$xinst 0000                             _GPIO_Write 11C6  
                      GPIO_Write@PinId 0012                            _WDGDrv_Init 11E8  
                           _WDTCONbits 0FD1                          _mainFuncCalls 0005  
                         ?_LEDM_Manage 0012  
